target datalayout = "e-m:e-p270:32:32-p271:32:32-p272:64:64-i64:64-i128:128-f80:128-n8:16:32:64-S128"
target triple = "x86_64-pc-linux-gnu"

%struct.Tuplestorestate = type { i32, i32, i8, i8, i8, i8, i64, i64, i64, i64, ptr, ptr, ptr, ptr, ptr, ptr, ptr, i32, i32, i32, i8, ptr, i32, i32, i32, i32, i64 }

@.str.5 = private unnamed_addr constant [5 x i8] c"Disk\00", align 1
@.str.6 = private unnamed_addr constant [7 x i8] c"Memory\00", align 1

; Function Attrs: nounwind uwtable
define internal void @tuplestore_updatemax(ptr noundef %0) #0 {
  %2 = alloca ptr, align 8
  store ptr %0, ptr %2, align 8
  %3 = load ptr, ptr %2, align 8
  %4 = getelementptr inbounds nuw %struct.Tuplestorestate, ptr %3, i32 0, i32 0
  %5 = load i32, ptr %4, align 8
  %6 = icmp eq i32 %5, 0
  br i1 %6, label %7, label %35

7:                                                ; preds = %1
  %8 = load ptr, ptr %2, align 8
  %9 = getelementptr inbounds nuw %struct.Tuplestorestate, ptr %8, i32 0, i32 6
  %10 = load i64, ptr %9, align 8
  %11 = load ptr, ptr %2, align 8
  %12 = getelementptr inbounds nuw %struct.Tuplestorestate, ptr %11, i32 0, i32 8
  %13 = load i64, ptr %12, align 8
  %14 = load ptr, ptr %2, align 8
  %15 = getelementptr inbounds nuw %struct.Tuplestorestate, ptr %14, i32 0, i32 7
  %16 = load i64, ptr %15, align 8
  %17 = sub i64 %13, %16
  %18 = icmp sgt i64 %10, %17
  br i1 %18, label %19, label %23

19:                                               ; preds = %7
  %20 = load ptr, ptr %2, align 8
  %21 = getelementptr inbounds nuw %struct.Tuplestorestate, ptr %20, i32 0, i32 6
  %22 = load i64, ptr %21, align 8
  br label %31

23:                                               ; preds = %7
  %24 = load ptr, ptr %2, align 8
  %25 = getelementptr inbounds nuw %struct.Tuplestorestate, ptr %24, i32 0, i32 8
  %26 = load i64, ptr %25, align 8
  %27 = load ptr, ptr %2, align 8
  %28 = getelementptr inbounds nuw %struct.Tuplestorestate, ptr %27, i32 0, i32 7
  %29 = load i64, ptr %28, align 8
  %30 = sub i64 %26, %29
  br label %31

31:                                               ; preds = %23, %19
  %32 = phi i64 [ %22, %19 ], [ %30, %23 ]
  %33 = load ptr, ptr %2, align 8
  %34 = getelementptr inbounds nuw %struct.Tuplestorestate, ptr %33, i32 0, i32 6
  store i64 %32, ptr %34, align 8
  br label %59

35:                                               ; preds = %1
  %36 = load ptr, ptr %2, align 8
  %37 = getelementptr inbounds nuw %struct.Tuplestorestate, ptr %36, i32 0, i32 6
  %38 = load i64, ptr %37, align 8
  %39 = load ptr, ptr %2, align 8
  %40 = getelementptr inbounds nuw %struct.Tuplestorestate, ptr %39, i32 0, i32 10
  %41 = load ptr, ptr %40, align 8
  %42 = call i64 @BufFileSize(ptr noundef %41)
  %43 = icmp sgt i64 %38, %42
  br i1 %43, label %44, label %48

44:                                               ; preds = %35
  %45 = load ptr, ptr %2, align 8
  %46 = getelementptr inbounds nuw %struct.Tuplestorestate, ptr %45, i32 0, i32 6
  %47 = load i64, ptr %46, align 8
  br label %53

48:                                               ; preds = %35
  %49 = load ptr, ptr %2, align 8
  %50 = getelementptr inbounds nuw %struct.Tuplestorestate, ptr %49, i32 0, i32 10
  %51 = load ptr, ptr %50, align 8
  %52 = call i64 @BufFileSize(ptr noundef %51)
  br label %53

53:                                               ; preds = %48, %44
  %54 = phi i64 [ %47, %44 ], [ %52, %48 ]
  %55 = load ptr, ptr %2, align 8
  %56 = getelementptr inbounds nuw %struct.Tuplestorestate, ptr %55, i32 0, i32 6
  store i64 %54, ptr %56, align 8
  %57 = load ptr, ptr %2, align 8
  %58 = getelementptr inbounds nuw %struct.Tuplestorestate, ptr %57, i32 0, i32 5
  store i8 1, ptr %58, align 1
  br label %59

59:                                               ; preds = %53, %31
  ret void
}

; Function Attrs: nounwind uwtable
define dso_local void @tuplestore_get_stats(ptr noundef %0, ptr noundef %1, ptr noundef %2) #0 {
  %4 = alloca ptr, align 8
  %5 = alloca ptr, align 8
  %6 = alloca ptr, align 8
  store ptr %0, ptr %4, align 8
  store ptr %1, ptr %5, align 8
  store ptr %2, ptr %6, align 8
  %7 = load ptr, ptr %4, align 8
  call void @tuplestore_updatemax(ptr noundef %7)
  %8 = load ptr, ptr %4, align 8
  %9 = getelementptr inbounds nuw %struct.Tuplestorestate, ptr %8, i32 0, i32 5
  %10 = load i8, ptr %9, align 1, !range !4, !noundef !5
  %11 = trunc i8 %10 to i1
  br i1 %11, label %12, label %14

12:                                               ; preds = %3
  %13 = load ptr, ptr %5, align 8
  store ptr @.str.5, ptr %13, align 8
  br label %16

14:                                               ; preds = %3
  %15 = load ptr, ptr %5, align 8
  store ptr @.str.6, ptr %15, align 8
  br label %16

16:                                               ; preds = %14, %12
  %17 = load ptr, ptr %4, align 8
  %18 = getelementptr inbounds nuw %struct.Tuplestorestate, ptr %17, i32 0, i32 6
  %19 = load i64, ptr %18, align 8
  %20 = load ptr, ptr %6, align 8
  store i64 %19, ptr %20, align 8
  ret void
}