; Function Attrs: nounwind uwtable
define dso_local void @tuplestore_get_stats(ptr noundef captures(none) %0, ptr noundef writeonly captures(none) initializes((0, 8)) %1, ptr noundef writeonly captures(none) initializes((0, 8)) %2) local_unnamed_addr #0 {
  %4 = load i32, ptr %0, align 8
  %5 = icmp eq i32 %4, 0
  %6 = getelementptr inbounds nuw i8, ptr %0, i64 16
  %7 = load i64, ptr %6, align 8
  br i1 %5, label %8, label %16

8:                                                ; preds = %3
  %9 = getelementptr inbounds nuw i8, ptr %0, i64 32
  %10 = load i64, ptr %9, align 8
  %11 = getelementptr inbounds nuw i8, ptr %0, i64 24
  %12 = load i64, ptr %11, align 8
  %13 = sub i64 %10, %12
  %..i = tail call i64 @llvm.smax.i64(i64 %7, i64 %13)
  store i64 %..i, ptr %6, align 8
  %.phi.trans.insert = getelementptr inbounds nuw i8, ptr %0, i64 11
  %.pre = load i8, ptr %.phi.trans.insert, align 1, !range !4
  %14 = trunc nuw i8 %.pre to i1
  %15 = select i1 %14, ptr @.str.5, ptr @.str.6
  br label %tuplestore_updatemax.exit

16:                                               ; preds = %3
  %17 = getelementptr inbounds nuw i8, ptr %0, i64 48
  %18 = load ptr, ptr %17, align 8
  %19 = tail call i64 @BufFileSize(ptr noundef %18) #9
  %20 = icmp sgt i64 %7, %19
  br i1 %20, label %21, label %23

21:                                               ; preds = %16
  %22 = load i64, ptr %6, align 8
  br label %26

23:                                               ; preds = %16
  %24 = load ptr, ptr %17, align 8
  %25 = tail call i64 @BufFileSize(ptr noundef %24) #9
  br label %26

26:                                               ; preds = %23, %21
  %27 = phi i64 [ %22, %21 ], [ %25, %23 ]
  store i64 %27, ptr %6, align 8
  %28 = getelementptr inbounds nuw i8, ptr %0, i64 11
  store i8 1, ptr %28, align 1
  br label %tuplestore_updatemax.exit

tuplestore_updatemax.exit:                        ; preds = %8, %26
  %.str.5..str.6 = phi ptr [ %15, %8 ], [ @.str.5, %26 ]
  store ptr %.str.5..str.6, ptr %1, align 8
  %29 = load i64, ptr %6, align 8
  store i64 %29, ptr %2, align 8
  ret void
}